target datalayout = "e-m:e-p270:32:32-p271:32:32-p272:64:64-i64:64-i128:128-f80:128-n8:16:32:64-S128"
target triple = "x86_64-pc-linux-gnu"

%struct.ma_paged_audio_buffer_data = type { i32, i32, %struct.ma_paged_audio_buffer_page, ptr }
%struct.ma_paged_audio_buffer_page = type { ptr, i64, [1 x i8] }

; Function Attrs: alwaysinline nounwind uwtable
define internal void @ma_zero_memory_default(ptr noundef %0, i64 noundef %1) #7 {
  %3 = alloca ptr, align 8
  %4 = alloca i64, align 8
  store ptr %0, ptr %3, align 8, !tbaa !25
  store i64 %1, ptr %4, align 8, !tbaa !12
  %5 = load ptr, ptr %3, align 8, !tbaa !25
  %6 = icmp eq ptr %5, null
  br i1 %6, label %7, label %8

7:                                                ; preds = %2
  br label %14

8:                                                ; preds = %2
  %9 = load i64, ptr %4, align 8, !tbaa !12
  %10 = icmp ugt i64 %9, 0
  br i1 %10, label %11, label %14

11:                                               ; preds = %8
  %12 = load ptr, ptr %3, align 8, !tbaa !25
  %13 = load i64, ptr %4, align 8, !tbaa !12
  call void @llvm.memset.p0.i64(ptr align 1 %12, i8 0, i64 %13, i1 false)
  br label %14

14:                                               ; preds = %7, %11, %8
  ret void
}

; Function Attrs: nounwind uwtable
define i32 @ma_paged_audio_buffer_data_init(i32 noundef %0, i32 noundef %1, ptr noundef %2) #0 {
  %4 = alloca i32, align 4
  %5 = alloca i32, align 4
  %6 = alloca i32, align 4
  %7 = alloca ptr, align 8
  store i32 %0, ptr %5, align 4, !tbaa !8
  store i32 %1, ptr %6, align 4, !tbaa !8
  store ptr %2, ptr %7, align 8, !tbaa !25
  %8 = load ptr, ptr %7, align 8, !tbaa !25
  %9 = icmp eq ptr %8, null
  br i1 %9, label %10, label %11

10:                                               ; preds = %3
  store i32 -2, ptr %4, align 4
  br label %23

11:                                               ; preds = %3
  %12 = load ptr, ptr %7, align 8, !tbaa !25
  call void @ma_zero_memory_default(ptr noundef %12, i64 noundef 40)
  %13 = load i32, ptr %5, align 4, !tbaa !8
  %14 = load ptr, ptr %7, align 8, !tbaa !25
  %15 = getelementptr inbounds nuw %struct.ma_paged_audio_buffer_data, ptr %14, i32 0, i32 0
  store i32 %13, ptr %15, align 8, !tbaa !891
  %16 = load i32, ptr %6, align 4, !tbaa !8
  %17 = load ptr, ptr %7, align 8, !tbaa !25
  %18 = getelementptr inbounds nuw %struct.ma_paged_audio_buffer_data, ptr %17, i32 0, i32 1
  store i32 %16, ptr %18, align 4, !tbaa !895
  %19 = load ptr, ptr %7, align 8, !tbaa !25
  %20 = getelementptr inbounds nuw %struct.ma_paged_audio_buffer_data, ptr %19, i32 0, i32 2
  %21 = load ptr, ptr %7, align 8, !tbaa !25
  %22 = getelementptr inbounds nuw %struct.ma_paged_audio_buffer_data, ptr %21, i32 0, i32 3
  store ptr %20, ptr %22, align 8, !tbaa !896
  store i32 0, ptr %4, align 4
  br label %23

23:                                               ; preds = %11, %10
  %24 = load i32, ptr %4, align 4
  ret i32 %24
}