; Function Attrs: mustprogress nofree norecurse nosync nounwind willreturn memory(argmem: write) uwtable
define range(i32 -2, 1) i32 @ma_paged_audio_buffer_data_init(i32 noundef %0, i32 noundef %1, ptr noundef %2) local_unnamed_addr #0 {
  %4 = icmp eq ptr %2, null
  br i1 %4, label %9, label %ma_zero_memory_default.exit

ma_zero_memory_default.exit:                      ; preds = %3
  %5 = getelementptr inbounds nuw i8, ptr %2, i64 8
  tail call void @llvm.memset.p0.i64(ptr noundef nonnull align 1 dereferenceable(40) %5, i8 0, i64 24, i1 false)
  store i32 %0, ptr %2, align 8, !tbaa !1078
  %6 = getelementptr inbounds nuw i8, ptr %2, i64 4
  store i32 %1, ptr %6, align 4, !tbaa !1082
  %7 = getelementptr inbounds nuw i8, ptr %2, i64 8
  %8 = getelementptr inbounds nuw i8, ptr %2, i64 32
  store ptr %7, ptr %8, align 8, !tbaa !1083
  br label %9

9:                                                ; preds = %3, %ma_zero_memory_default.exit
  %.0 = phi i32 [ 0, %ma_zero_memory_default.exit ], [ -2, %3 ]
  ret i32 %.0
}